target datalayout = "e-m:e-p270:32:32-p271:32:32-p272:64:64-i64:64-i128:128-f80:128-n8:16:32:64-S128"
target triple = "x86_64-pc-linux-gnu"

%"class.cv::Mat" = type { i32, i32, i32, i32, ptr, ptr, ptr, ptr, ptr, ptr, %"struct.cv::MatSize", %"struct.cv::MatStep" }
%"struct.cv::MatSize" = type { ptr }
%"struct.cv::MatStep" = type { ptr, [2 x i64] }
%"class.cv::MatExpr" = type { ptr, i32, %"class.cv::Mat", %"class.cv::Mat", %"class.cv::Mat", double, double, %"class.cv::Scalar_" }
%"class.cv::Scalar_" = type { %"class.cv::Vec" }
%"class.cv::Vec" = type { %"class.cv::Matx" }
%"class.cv::Matx" = type { [4 x double] }
%"class.cv::Point_" = type { float, float }
%"class.cv::Mat_" = type { %"class.cv::Mat" }

; Function Attrs: mustprogress nounwind uwtable
define linkonce_odr hidden void @_ZN2cv4Mat_IfED2Ev(ptr noundef nonnull align 8 dereferenceable(96) %0) unnamed_addr #7 comdat align 2 {
  %2 = alloca ptr, align 8
  store ptr %0, ptr %2, align 8
  %3 = load ptr, ptr %2, align 8
  call void @_ZN2cv3MatD2Ev(ptr noundef nonnull align 8 dereferenceable(96) %3) #3
  ret void
}

; Function Attrs: mustprogress nounwind uwtable
define linkonce_odr hidden noundef nonnull align 4 dereferenceable(4) ptr @_ZN2cv4Mat_IfEclEii(ptr noundef nonnull align 8 dereferenceable(96) %0, i32 noundef %1, i32 noundef %2) #7 comdat align 2 {
  %4 = alloca ptr, align 8
  %5 = alloca i32, align 4
  %6 = alloca i32, align 4
  store ptr %0, ptr %4, align 8
  store i32 %1, ptr %5, align 4
  store i32 %2, ptr %6, align 4
  %7 = load ptr, ptr %4, align 8
  %8 = getelementptr inbounds %"class.cv::Mat", ptr %7, i32 0, i32 4
  %9 = load ptr, ptr %8, align 8
  %10 = getelementptr inbounds %"class.cv::Mat", ptr %7, i32 0, i32 11
  %11 = getelementptr inbounds %"struct.cv::MatStep", ptr %10, i32 0, i32 0
  %12 = load ptr, ptr %11, align 8
  %13 = getelementptr inbounds i64, ptr %12, i64 0
  %14 = load i64, ptr %13, align 8
  %15 = load i32, ptr %5, align 4
  %16 = sext i32 %15 to i64
  %17 = mul i64 %14, %16
  %18 = getelementptr inbounds i8, ptr %9, i64 %17
  %19 = load i32, ptr %6, align 4
  %20 = sext i32 %19 to i64
  %21 = getelementptr inbounds float, ptr %18, i64 %20
  ret ptr %21
}

; Function Attrs: mustprogress nounwind uwtable
define linkonce_odr noundef float @_ZSt4sqrtf(float noundef %0) #7 comdat {
  %2 = alloca float, align 4
  store float %0, ptr %2, align 4
  %3 = load float, ptr %2, align 4
  %4 = call float @sqrtf(float noundef %3) #3
  ret float %4
}

; Function Attrs: mustprogress nounwind uwtable
define linkonce_odr hidden noundef float @_Z3sqrf(float noundef %0) #7 comdat {
  %2 = alloca float, align 4
  store float %0, ptr %2, align 4
  %3 = load float, ptr %2, align 4
  %4 = load float, ptr %2, align 4
  %5 = fmul float %3, %4
  ret float %5
}

; Function Attrs: mustprogress uwtable
define internal void @_ZN2cv9videostabL15normalizePointsEiPNS_6Point_IfEE(ptr dead_on_unwind noalias writable sret(%"class.cv::Mat_") align 8 %0, i32 noundef %1, ptr noundef %2) #4 personality ptr @__gxx_personality_v0 {
  %4 = alloca ptr, align 8
  %5 = alloca i32, align 4
  %6 = alloca ptr, align 8
  %7 = alloca float, align 4
  %8 = alloca float, align 4
  %9 = alloca i32, align 4
  %10 = alloca float, align 4
  %11 = alloca i32, align 4
  %12 = alloca float, align 4
  %13 = alloca i32, align 4
  %14 = alloca i1, align 1
  %15 = alloca %"class.cv::MatExpr", align 8
  %16 = alloca ptr, align 8
  %17 = alloca i32, align 4
  store ptr %0, ptr %4, align 8
  store i32 %1, ptr %5, align 4
  store ptr %2, ptr %6, align 8
  store float 0.000000e+00, ptr %7, align 4
  store float 0.000000e+00, ptr %8, align 4
  store i32 0, ptr %9, align 4
  br label %18

18:                                               ; preds = %39, %3
  %19 = load i32, ptr %9, align 4
  %20 = load i32, ptr %5, align 4
  %21 = icmp slt i32 %19, %20
  br i1 %21, label %22, label %42

22:                                               ; preds = %18
  %23 = load ptr, ptr %6, align 8
  %24 = load i32, ptr %9, align 4
  %25 = sext i32 %24 to i64
  %26 = getelementptr inbounds %"class.cv::Point_", ptr %23, i64 %25
  %27 = getelementptr inbounds %"class.cv::Point_", ptr %26, i32 0, i32 0
  %28 = load float, ptr %27, align 4
  %29 = load float, ptr %7, align 4
  %30 = fadd float %29, %28
  store float %30, ptr %7, align 4
  %31 = load ptr, ptr %6, align 8
  %32 = load i32, ptr %9, align 4
  %33 = sext i32 %32 to i64
  %34 = getelementptr inbounds %"class.cv::Point_", ptr %31, i64 %33
  %35 = getelementptr inbounds %"class.cv::Point_", ptr %34, i32 0, i32 1
  %36 = load float, ptr %35, align 4
  %37 = load float, ptr %8, align 4
  %38 = fadd float %37, %36
  store float %38, ptr %8, align 4
  br label %39

39:                                               ; preds = %22
  %40 = load i32, ptr %9, align 4
  %41 = add nsw i32 %40, 1
  store i32 %41, ptr %9, align 4
  br label %18, !llvm.loop !31

42:                                               ; preds = %18
  %43 = load i32, ptr %5, align 4
  %44 = sitofp i32 %43 to float
  %45 = load float, ptr %7, align 4
  %46 = fdiv float %45, %44
  store float %46, ptr %7, align 4
  %47 = load i32, ptr %5, align 4
  %48 = sitofp i32 %47 to float
  %49 = load float, ptr %8, align 4
  %50 = fdiv float %49, %48
  store float %50, ptr %8, align 4
  store float 0.000000e+00, ptr %10, align 4
  store i32 0, ptr %11, align 4
  br label %51

51:                                               ; preds = %90, %42
  %52 = load i32, ptr %11, align 4
  %53 = load i32, ptr %5, align 4
  %54 = icmp slt i32 %52, %53
  br i1 %54, label %55, label %93

55:                                               ; preds = %51
  %56 = load float, ptr %7, align 4
  %57 = load ptr, ptr %6, align 8
  %58 = load i32, ptr %11, align 4
  %59 = sext i32 %58 to i64
  %60 = getelementptr inbounds %"class.cv::Point_", ptr %57, i64 %59
  %61 = getelementptr inbounds %"class.cv::Point_", ptr %60, i32 0, i32 0
  %62 = load float, ptr %61, align 4
  %63 = fsub float %62, %56
  store float %63, ptr %61, align 4
  %64 = load float, ptr %8, align 4
  %65 = load ptr, ptr %6, align 8
  %66 = load i32, ptr %11, align 4
  %67 = sext i32 %66 to i64
  %68 = getelementptr inbounds %"class.cv::Point_", ptr %65, i64 %67
  %69 = getelementptr inbounds %"class.cv::Point_", ptr %68, i32 0, i32 1
  %70 = load float, ptr %69, align 4
  %71 = fsub float %70, %64
  store float %71, ptr %69, align 4
  %72 = load ptr, ptr %6, align 8
  %73 = load i32, ptr %11, align 4
  %74 = sext i32 %73 to i64
  %75 = getelementptr inbounds %"class.cv::Point_", ptr %72, i64 %74
  %76 = getelementptr inbounds %"class.cv::Point_", ptr %75, i32 0, i32 0
  %77 = load float, ptr %76, align 4
  %78 = call noundef float @_Z3sqrf(float noundef %77)
  %79 = load ptr, ptr %6, align 8
  %80 = load i32, ptr %11, align 4
  %81 = sext i32 %80 to i64
  %82 = getelementptr inbounds %"class.cv::Point_", ptr %79, i64 %81
  %83 = getelementptr inbounds %"class.cv::Point_", ptr %82, i32 0, i32 1
  %84 = load float, ptr %83, align 4
  %85 = call noundef float @_Z3sqrf(float noundef %84)
  %86 = fadd float %78, %85
  %87 = call noundef float @_ZSt4sqrtf(float noundef %86)
  %88 = load float, ptr %10, align 4
  %89 = fadd float %88, %87
  store float %89, ptr %10, align 4
  br label %90

90:                                               ; preds = %55
  %91 = load i32, ptr %11, align 4
  %92 = add nsw i32 %91, 1
  store i32 %92, ptr %11, align 4
  br label %51, !llvm.loop !32

93:                                               ; preds = %51
  %94 = load i32, ptr %5, align 4
  %95 = sitofp i32 %94 to float
  %96 = load float, ptr %10, align 4
  %97 = fdiv float %96, %95
  store float %97, ptr %10, align 4
  %98 = call noundef float @_ZSt4sqrtf(float noundef 2.000000e+00)
  %99 = load float, ptr %10, align 4
  %100 = fdiv float %98, %99
  store float %100, ptr %12, align 4
  store i32 0, ptr %13, align 4
  br label %101

101:                                              ; preds = %122, %93
  %102 = load i32, ptr %13, align 4
  %103 = load i32, ptr %5, align 4
  %104 = icmp slt i32 %102, %103
  br i1 %104, label %105, label %125

105:                                              ; preds = %101
  %106 = load float, ptr %12, align 4
  %107 = load ptr, ptr %6, align 8
  %108 = load i32, ptr %13, align 4
  %109 = sext i32 %108 to i64
  %110 = getelementptr inbounds %"class.cv::Point_", ptr %107, i64 %109
  %111 = getelementptr inbounds %"class.cv::Point_", ptr %110, i32 0, i32 0
  %112 = load float, ptr %111, align 4
  %113 = fmul float %112, %106
  store float %113, ptr %111, align 4
  %114 = load float, ptr %12, align 4
  %115 = load ptr, ptr %6, align 8
  %116 = load i32, ptr %13, align 4
  %117 = sext i32 %116 to i64
  %118 = getelementptr inbounds %"class.cv::Point_", ptr %115, i64 %117
  %119 = getelementptr inbounds %"class.cv::Point_", ptr %118, i32 0, i32 1
  %120 = load float, ptr %119, align 4
  %121 = fmul float %120, %114
  store float %121, ptr %119, align 4
  br label %122

122:                                              ; preds = %105
  %123 = load i32, ptr %13, align 4
  %124 = add nsw i32 %123, 1
  store i32 %124, ptr %13, align 4
  br label %101, !llvm.loop !33

125:                                              ; preds = %101
  store i1 false, ptr %14, align 1
  call void @_ZN2cv3Mat3eyeEiii(ptr dead_on_unwind writable sret(%"class.cv::MatExpr") align 8 %15, i32 noundef 3, i32 noundef 3, i32 noundef 5)
  invoke void @_ZN2cv4Mat_IfEC2EONS_7MatExprE(ptr noundef nonnull align 8 dereferenceable(96) %0, ptr noundef nonnull align 8 dereferenceable(352) %15)
          to label %126 unwind label %145

126:                                              ; preds = %125
  call void @_ZN2cv7MatExprD2Ev(ptr noundef nonnull align 8 dereferenceable(352) %15) #3
  %127 = load float, ptr %12, align 4
  %128 = invoke noundef nonnull align 4 dereferenceable(4) ptr @_ZN2cv4Mat_IfEclEii(ptr noundef nonnull align 8 dereferenceable(96) %0, i32 noundef 1, i32 noundef 1)
          to label %129 unwind label %149

129:                                              ; preds = %126
  store float %127, ptr %128, align 4
  %130 = invoke noundef nonnull align 4 dereferenceable(4) ptr @_ZN2cv4Mat_IfEclEii(ptr noundef nonnull align 8 dereferenceable(96) %0, i32 noundef 0, i32 noundef 0)
          to label %131 unwind label %149

131:                                              ; preds = %129
  store float %127, ptr %130, align 4
  %132 = load float, ptr %7, align 4
  %133 = fneg float %132
  %134 = load float, ptr %12, align 4
  %135 = fmul float %133, %134
  %136 = invoke noundef nonnull align 4 dereferenceable(4) ptr @_ZN2cv4Mat_IfEclEii(ptr noundef nonnull align 8 dereferenceable(96) %0, i32 noundef 0, i32 noundef 2)
          to label %137 unwind label %149

137:                                              ; preds = %131
  store float %135, ptr %136, align 4
  %138 = load float, ptr %8, align 4
  %139 = fneg float %138
  %140 = load float, ptr %12, align 4
  %141 = fmul float %139, %140
  %142 = invoke noundef nonnull align 4 dereferenceable(4) ptr @_ZN2cv4Mat_IfEclEii(ptr noundef nonnull align 8 dereferenceable(96) %0, i32 noundef 1, i32 noundef 2)
          to label %143 unwind label %149

143:                                              ; preds = %137
  store float %141, ptr %142, align 4
  store i1 true, ptr %14, align 1
  %144 = load i1, ptr %14, align 1
  br i1 %144, label %154, label %153

145:                                              ; preds = %125
  %146 = landingpad { ptr, i32 }
          cleanup
  %147 = extractvalue { ptr, i32 } %146, 0
  store ptr %147, ptr %16, align 8
  %148 = extractvalue { ptr, i32 } %146, 1
  store i32 %148, ptr %17, align 4
  call void @_ZN2cv7MatExprD2Ev(ptr noundef nonnull align 8 dereferenceable(352) %15) #3
  br label %155

149:                                              ; preds = %137, %131, %129, %126
  %150 = landingpad { ptr, i32 }
          cleanup
  %151 = extractvalue { ptr, i32 } %150, 0
  store ptr %151, ptr %16, align 8
  %152 = extractvalue { ptr, i32 } %150, 1
  store i32 %152, ptr %17, align 4
  call void @_ZN2cv4Mat_IfED2Ev(ptr noundef nonnull align 8 dereferenceable(96) %0) #3
  br label %155

153:                                              ; preds = %143
  call void @_ZN2cv4Mat_IfED2Ev(ptr noundef nonnull align 8 dereferenceable(96) %0) #3
  br label %154

154:                                              ; preds = %153, %143
  ret void

155:                                              ; preds = %149, %145
  %156 = load ptr, ptr %16, align 8
  %157 = load i32, ptr %17, align 4
  %158 = insertvalue { ptr, i32 } poison, ptr %156, 0
  %159 = insertvalue { ptr, i32 } %158, i32 %157, 1
  resume { ptr, i32 } %159
}