; Function Attrs: mustprogress uwtable
define internal fastcc void @_ZN2cv9videostabL15normalizePointsEiPNS_6Point_IfEE(ptr dead_on_unwind noalias writable align 8 %0, i32 noundef %1, ptr nocapture noundef %2) unnamed_addr #3 personality ptr @__gxx_personality_v0 {
  %4 = alloca %"class.cv::MatExpr", align 8
  %5 = icmp sgt i32 %1, 0
  br i1 %5, label %.lr.ph.preheader, label %._crit_edge.thread

._crit_edge.thread:                               ; preds = %3
  %6 = sitofp i32 %1 to float
  %7 = insertelement <2 x float> poison, float %6, i64 0
  %8 = fdiv <2 x float> <float 0.000000e+00, float poison>, %7
  %9 = shufflevector <2 x float> %8, <2 x float> poison, <2 x i32> zeroinitializer
  br label %._crit_edge60.thread

.lr.ph.preheader:                                 ; preds = %3
  %wide.trip.count = zext nneg i32 %1 to i64
  br label %.lr.ph

.lr.ph:                                           ; preds = %.lr.ph.preheader, %.lr.ph
  %indvars.iv = phi i64 [ 0, %.lr.ph.preheader ], [ %indvars.iv.next, %.lr.ph ]
  %10 = phi <2 x float> [ zeroinitializer, %.lr.ph.preheader ], [ %13, %.lr.ph ]
  %11 = getelementptr inbounds %"class.cv::Point_", ptr %2, i64 %indvars.iv
  %12 = load <2 x float>, ptr %11, align 4
  %13 = fadd <2 x float> %10, %12
  %indvars.iv.next = add nuw nsw i64 %indvars.iv, 1
  %exitcond.not = icmp eq i64 %indvars.iv.next, %wide.trip.count
  br i1 %exitcond.not, label %._crit_edge, label %.lr.ph, !llvm.loop !147

._crit_edge:                                      ; preds = %.lr.ph
  %14 = sitofp i32 %1 to float
  %15 = insertelement <2 x float> poison, float %14, i64 0
  %16 = shufflevector <2 x float> %15, <2 x float> poison, <2 x i32> zeroinitializer
  %17 = fdiv <2 x float> %13, %16
  br i1 %5, label %.lr.ph59.preheader, label %._crit_edge60.thread

.lr.ph59.preheader:                               ; preds = %._crit_edge
  %wide.trip.count72 = zext nneg i32 %1 to i64
  br label %.lr.ph59

.lr.ph59:                                         ; preds = %.lr.ph59.preheader, %.lr.ph59
  %indvars.iv69 = phi i64 [ 0, %.lr.ph59.preheader ], [ %indvars.iv.next70, %.lr.ph59 ]
  %.05056 = phi float [ 0.000000e+00, %.lr.ph59.preheader ], [ %24, %.lr.ph59 ]
  %18 = getelementptr inbounds %"class.cv::Point_", ptr %2, i64 %indvars.iv69
  %19 = load <2 x float>, ptr %18, align 4
  %20 = fsub <2 x float> %19, %17
  store <2 x float> %20, ptr %18, align 4
  %21 = fmul <2 x float> %20, %20
  %shift = shufflevector <2 x float> %21, <2 x float> poison, <2 x i32> <i32 1, i32 poison>
  %22 = fadd <2 x float> %21, %shift
  %23 = extractelement <2 x float> %22, i64 0
  %sqrt = tail call float @llvm.sqrt.f32(float %23)
  %24 = fadd float %.05056, %sqrt
  %indvars.iv.next70 = add nuw nsw i64 %indvars.iv69, 1
  %exitcond73.not = icmp eq i64 %indvars.iv.next70, %wide.trip.count72
  br i1 %exitcond73.not, label %._crit_edge60, label %.lr.ph59, !llvm.loop !148

._crit_edge60.thread:                             ; preds = %._crit_edge.thread, %._crit_edge
  %.ph82 = phi float [ %6, %._crit_edge.thread ], [ %14, %._crit_edge ]
  %25 = phi <2 x float> [ %9, %._crit_edge.thread ], [ %17, %._crit_edge ]
  %26 = fdiv float 0.000000e+00, %.ph82
  %27 = fdiv float 0x3FF6A09E60000000, %26
  br label %._crit_edge65

._crit_edge60:                                    ; preds = %.lr.ph59
  %28 = fdiv float %24, %14
  %29 = fdiv float 0x3FF6A09E60000000, %28
  br i1 %5, label %.lr.ph64.preheader, label %._crit_edge65

.lr.ph64.preheader:                               ; preds = %._crit_edge60
  %wide.trip.count77 = zext nneg i32 %1 to i64
  %30 = insertelement <2 x float> poison, float %29, i64 0
  %31 = shufflevector <2 x float> %30, <2 x float> poison, <2 x i32> zeroinitializer
  br label %.lr.ph64

.lr.ph64:                                         ; preds = %.lr.ph64.preheader, %.lr.ph64
  %indvars.iv74 = phi i64 [ 0, %.lr.ph64.preheader ], [ %indvars.iv.next75, %.lr.ph64 ]
  %32 = getelementptr inbounds %"class.cv::Point_", ptr %2, i64 %indvars.iv74
  %33 = load <2 x float>, ptr %32, align 4
  %34 = fmul <2 x float> %31, %33
  store <2 x float> %34, ptr %32, align 4
  %indvars.iv.next75 = add nuw nsw i64 %indvars.iv74, 1
  %exitcond78.not = icmp eq i64 %indvars.iv.next75, %wide.trip.count77
  br i1 %exitcond78.not, label %._crit_edge65, label %.lr.ph64, !llvm.loop !149

._crit_edge65:                                    ; preds = %.lr.ph64, %._crit_edge60.thread, %._crit_edge60
  %35 = phi float [ %27, %._crit_edge60.thread ], [ %29, %._crit_edge60 ], [ %29, %.lr.ph64 ]
  %36 = phi <2 x float> [ %25, %._crit_edge60.thread ], [ %17, %._crit_edge60 ], [ %17, %.lr.ph64 ]
  call void @_ZN2cv3Mat3eyeEiii(ptr dead_on_unwind nonnull writable sret(%"class.cv::MatExpr") align 8 %4, i32 noundef 3, i32 noundef 3, i32 noundef 5)
  invoke void @_ZN2cv4Mat_IfEC2EONS_7MatExprE(ptr noundef nonnull align 8 dereferenceable(96) %0, ptr noundef nonnull align 8 dereferenceable(352) %4)
          to label %37 unwind label %62

37:                                               ; preds = %._crit_edge65
  %38 = getelementptr inbounds i8, ptr %4, i64 208
  call void @_ZN2cv3MatD1Ev(ptr noundef nonnull align 8 dereferenceable(96) %38) #21
  %39 = getelementptr inbounds i8, ptr %4, i64 112
  call void @_ZN2cv3MatD1Ev(ptr noundef nonnull align 8 dereferenceable(96) %39) #21
  %40 = getelementptr inbounds i8, ptr %4, i64 16
  call void @_ZN2cv3MatD1Ev(ptr noundef nonnull align 8 dereferenceable(96) %40) #21
  %41 = getelementptr inbounds i8, ptr %0, i64 16
  %42 = load ptr, ptr %41, align 8
  %43 = getelementptr inbounds i8, ptr %0, i64 72
  %44 = load ptr, ptr %43, align 8
  %45 = load i64, ptr %44, align 8
  %46 = getelementptr inbounds i8, ptr %42, i64 %45
  %47 = getelementptr inbounds i8, ptr %46, i64 4
  store float %35, ptr %47, align 4
  %48 = load ptr, ptr %41, align 8
  store float %35, ptr %48, align 4
  %49 = extractelement <2 x float> %36, i64 0
  %50 = fneg float %49
  %51 = fmul float %35, %50
  %52 = load ptr, ptr %41, align 8
  %53 = getelementptr inbounds i8, ptr %52, i64 8
  store float %51, ptr %53, align 4
  %54 = extractelement <2 x float> %36, i64 1
  %55 = fneg float %54
  %56 = fmul float %35, %55
  %57 = load ptr, ptr %41, align 8
  %58 = load ptr, ptr %43, align 8
  %59 = load i64, ptr %58, align 8
  %60 = getelementptr inbounds i8, ptr %57, i64 %59
  %61 = getelementptr inbounds i8, ptr %60, i64 8
  store float %56, ptr %61, align 4
  ret void

62:                                               ; preds = %._crit_edge65
  %63 = landingpad { ptr, i32 }
          cleanup
  call void @_ZN2cv7MatExprD2Ev(ptr noundef nonnull align 8 dereferenceable(352) %4) #21
  resume { ptr, i32 } %63
}